; ModuleID = '50/1607.c'
source_filename = "50/1607.c"
target datalayout = "e-m:e-p270:32:32-p271:32:32-p272:64:64-i64:64-f80:128-n8:16:32:64-S128"
target triple = "x86_64-pc-linux-gnu"

@sz = dso_local global [13 x i32] [i32 0, i32 31, i32 28, i32 31, i32 30, i32 31, i32 30, i32 31, i32 31, i32 30, i32 31, i32 30, i32 31], align 16
@.str = private unnamed_addr constant [3 x i8] c"%d\00", align 1
@.str.1 = private unnamed_addr constant [4 x i8] c"%d\0A\00", align 1

; Function Attrs: noinline nounwind uwtable
define dso_local i32 @main() #0 {
  %1 = alloca i32, align 4
  %2 = alloca i32, align 4
  %3 = alloca i32, align 4
  %4 = alloca i32, align 4
  store i32 0, i32* %1, align 4
  %5 = call i32 (i8*, ...) @__isoc99_scanf(i8* getelementptr inbounds ([3 x i8], [3 x i8]* @.str, i64 0, i64 0), i32* %2)
  %6 = load i32, i32* %2, align 4
  %7 = sub nsw i32 6, %6
  store i32 %7, i32* %2, align 4
  %8 = load i32, i32* %2, align 4
  %9 = icmp sle i32 %8, 0
  br i1 %9, label %10, label %13

10:                                               ; preds = %0
  %11 = load i32, i32* %2, align 4
  %12 = add nsw i32 %11, 7
  store i32 %12, i32* %2, align 4
  br label %13

13:                                               ; preds = %10, %0
  store i32 0, i32* %3, align 4
  store i32 1, i32* %4, align 4
  br label %14

14:                                               ; preds = %34, %13
  %15 = load i32, i32* %4, align 4
  %16 = icmp sle i32 %15, 12
  br i1 %16, label %17, label %37

17:                                               ; preds = %14
  %18 = load i32, i32* %3, align 4
  %19 = add nsw i32 %18, 13
  %20 = load i32, i32* %2, align 4
  %21 = sub nsw i32 %19, %20
  %22 = srem i32 %21, 7
  %23 = icmp eq i32 %22, 0
  br i1 %23, label %24, label %27

24:                                               ; preds = %17
  %25 = load i32, i32* %4, align 4
  %26 = call i32 (i8*, ...) @printf(i8* getelementptr inbounds ([4 x i8], [4 x i8]* @.str.1, i64 0, i64 0), i32 %25)
  br label %27

27:                                               ; preds = %24, %17
  %28 = load i32, i32* %3, align 4
  %29 = load i32, i32* %4, align 4
  %30 = sext i32 %29 to i64
  %31 = getelementptr inbounds [13 x i32], [13 x i32]* @sz, i64 0, i64 %30
  %32 = load i32, i32* %31, align 4
  %33 = add nsw i32 %28, %32
  store i32 %33, i32* %3, align 4
  br label %34

34:                                               ; preds = %27
  %35 = load i32, i32* %4, align 4
  %36 = add nsw i32 %35, 1
  store i32 %36, i32* %4, align 4
  br label %14

37:                                               ; preds = %14
  ret i32 0
}

declare dso_local i32 @__isoc99_scanf(i8*, ...) #1

declare dso_local i32 @printf(i8*, ...) #1


!llvm.module.flags = !{!0}
!llvm.ident = !{!1}

!0 = !{i32 1, !"wchar_size", i32 4}
!1 = !{!"clang version 10.0.0-4ubuntu1 "}
